; Function Attrs: mustprogress nounwind uwtable
define hidden void @_ZN6Assimp7Blender13destroyMTFaceEPNS0_8ElemBaseE(ptr noundef %pE) #5 {
entry:
  %0 = icmp eq ptr %pE, null
  br i1 %0, label %delete.end2, label %dynamic_cast.end

dynamic_cast.end:                                 ; preds = %entry
  %1 = tail call ptr @__dynamic_cast(ptr nonnull %pE, ptr nonnull @_ZTIN6Assimp7Blender8ElemBaseE, ptr nonnull @_ZTIN6Assimp7Blender6MTFaceE, i64 0) #14
  %isnull = icmp eq ptr %1, null
  br i1 %isnull, label %delete.end2, label %delete.notnull

delete.notnull:                                   ; preds = %dynamic_cast.end
  %2 = getelementptr inbounds i8, ptr %1, i64 -8
  tail call void @_ZdaPv(ptr noundef nonnull %2) #18
  br label %delete.end2

delete.end2:                                      ; preds = %entry, %delete.notnull, %dynamic_cast.end
  ret void
}